target datalayout = "e-m:e-p270:32:32-p271:32:32-p272:64:64-i64:64-i128:128-f80:128-n8:16:32:64-S128"
target triple = "x86_64-pc-linux-gnu"

@.str.3 = private unnamed_addr constant [14 x i8] c"mbtcp.prot_id\00", align 1
@.str.159 = private unnamed_addr constant [6 x i8] c"mbrtu\00", align 1
@proto_mbrtu = internal global i32 0, align 4
@modbus_handle = internal global ptr null, align 8
@mbrtu_handle = internal global ptr null, align 8
@.str.176 = private unnamed_addr constant [9 x i8] c"tcp.port\00", align 1
@.str.177 = private unnamed_addr constant [9 x i8] c"udp.port\00", align 1
@.str.179 = private unnamed_addr constant [13 x i8] c"rtacser.data\00", align 1
@.str.180 = private unnamed_addr constant [11 x i8] c"usb.device\00", align 1
@.str.181 = private unnamed_addr constant [12 x i8] c"usb.product\00", align 1
@.str.182 = private unnamed_addr constant [13 x i8] c"usb.protocol\00", align 1
@global_mbus_tcp_rtu_ports = internal global ptr null, align 8
@global_mbus_udp_rtu_ports = internal global ptr null, align 8

; Function Attrs: null_pointer_is_valid sspstrong uwtable
define internal void @apply_mbrtu_prefs() #0 {
  %1 = call ptr @prefs_get_range_value(ptr noundef @.str.159, ptr noundef @.str.176)
  store ptr %1, ptr @global_mbus_tcp_rtu_ports, align 8
  %2 = call ptr @prefs_get_range_value(ptr noundef @.str.159, ptr noundef @.str.177)
  store ptr %2, ptr @global_mbus_udp_rtu_ports, align 8
  ret void
}

; Function Attrs: null_pointer_is_valid sspstrong uwtable
define hidden void @proto_reg_handoff_mbrtu() #0 {
  %1 = alloca ptr, align 8
  call void @llvm.lifetime.start.p0(i64 8, ptr %1) #10
  %2 = load i32, ptr @proto_mbrtu, align 4
  %3 = call ptr @create_dissector_handle(ptr noundef @dissect_mbrtu_udp, i32 noundef %2)
  store ptr %3, ptr %1, align 8
  %4 = load ptr, ptr %1, align 8
  call void @dissector_add_for_decode_as_with_preference(ptr noundef @.str.177, ptr noundef %4)
  %5 = load ptr, ptr @mbrtu_handle, align 8
  call void @dissector_add_for_decode_as_with_preference(ptr noundef @.str.176, ptr noundef %5)
  call void @apply_mbrtu_prefs()
  %6 = load ptr, ptr @modbus_handle, align 8
  call void @dissector_add_uint(ptr noundef @.str.3, i32 noundef 0, ptr noundef %6)
  %7 = load ptr, ptr @mbrtu_handle, align 8
  call void @dissector_add_for_decode_as(ptr noundef @.str.179, ptr noundef %7)
  %8 = load ptr, ptr @mbrtu_handle, align 8
  call void @dissector_add_for_decode_as(ptr noundef @.str.180, ptr noundef %8)
  %9 = load ptr, ptr @mbrtu_handle, align 8
  call void @dissector_add_for_decode_as(ptr noundef @.str.181, ptr noundef %9)
  %10 = load ptr, ptr @mbrtu_handle, align 8
  call void @dissector_add_for_decode_as(ptr noundef @.str.182, ptr noundef %10)
  call void @llvm.lifetime.end.p0(i64 8, ptr %1) #10
  ret void
}