; Function Attrs: null_pointer_is_valid sspstrong uwtable
define hidden void @proto_reg_handoff_mbrtu() local_unnamed_addr #0 {
  %1 = load i32, ptr @proto_mbrtu, align 4
  %2 = tail call ptr @create_dissector_handle(ptr noundef nonnull @dissect_mbrtu_udp, i32 noundef %1)
  tail call void @dissector_add_for_decode_as_with_preference(ptr noundef nonnull @.str.177, ptr noundef %2)
  %3 = load ptr, ptr @mbrtu_handle, align 8
  tail call void @dissector_add_for_decode_as_with_preference(ptr noundef nonnull @.str.176, ptr noundef %3)
  %4 = tail call ptr @prefs_get_range_value(ptr noundef nonnull @.str.159, ptr noundef nonnull @.str.176)
  store ptr %4, ptr @global_mbus_tcp_rtu_ports, align 8
  %5 = tail call ptr @prefs_get_range_value(ptr noundef nonnull @.str.159, ptr noundef nonnull @.str.177)
  store ptr %5, ptr @global_mbus_udp_rtu_ports, align 8
  %6 = load ptr, ptr @modbus_handle, align 8
  tail call void @dissector_add_uint(ptr noundef nonnull @.str.3, i32 noundef 0, ptr noundef %6)
  %7 = load ptr, ptr @mbrtu_handle, align 8
  tail call void @dissector_add_for_decode_as(ptr noundef nonnull @.str.179, ptr noundef %7)
  %8 = load ptr, ptr @mbrtu_handle, align 8
  tail call void @dissector_add_for_decode_as(ptr noundef nonnull @.str.180, ptr noundef %8)
  %9 = load ptr, ptr @mbrtu_handle, align 8
  tail call void @dissector_add_for_decode_as(ptr noundef nonnull @.str.181, ptr noundef %9)
  %10 = load ptr, ptr @mbrtu_handle, align 8
  tail call void @dissector_add_for_decode_as(ptr noundef nonnull @.str.182, ptr noundef %10)
  ret void
}